target datalayout = "e-m:e-p270:32:32-p271:32:32-p272:64:64-i64:64-i128:128-f80:128-n8:16:32:64-S128"
target triple = "x86_64-pc-linux-gnu"

@.str.4 = private unnamed_addr constant [2 x i8] c"\0A\00", align 1
@.str.5 = private unnamed_addr constant [31 x i8] c"    opt [options] [selection]\0A\00", align 1
@.str.6 = private unnamed_addr constant [77 x i8] c"This pass calls all the other opt_* passes in a useful order. This performs\0A\00", align 1
@.str.7 = private unnamed_addr constant [78 x i8] c"a series of trivial optimizations and cleanups. This pass executes the other\0A\00", align 1
@.str.8 = private unnamed_addr constant [32 x i8] c"passes in the following order:\0A\00", align 1
@.str.9 = private unnamed_addr constant [89 x i8] c"    opt_expr [-mux_undef] [-mux_bool] [-undriven] [-noclkinv] [-fine] [-full] [-keepdc]\0A\00", align 1
@.str.10 = private unnamed_addr constant [35 x i8] c"    opt_merge [-share_all] -nomux\0A\00", align 1
@.str.11 = private unnamed_addr constant [8 x i8] c"    do\0A\00", align 1
@.str.12 = private unnamed_addr constant [21 x i8] c"        opt_muxtree\0A\00", align 1
@.str.13 = private unnamed_addr constant [36 x i8] c"        opt_reduce [-fine] [-full]\0A\00", align 1
@.str.14 = private unnamed_addr constant [32 x i8] c"        opt_merge [-share_all]\0A\00", align 1
@.str.15 = private unnamed_addr constant [33 x i8] c"        opt_share  (-full only)\0A\00", align 1
@.str.16 = private unnamed_addr constant [87 x i8] c"        opt_dff [-nodffe] [-nosdff] [-keepdc] [-sat]  (except when called with -noff)\0A\00", align 1
@.str.17 = private unnamed_addr constant [28 x i8] c"        opt_clean [-purge]\0A\00", align 1
@.str.18 = private unnamed_addr constant [93 x i8] c"        opt_expr [-mux_undef] [-mux_bool] [-undriven] [-noclkinv] [-fine] [-full] [-keepdc]\0A\00", align 1
@.str.19 = private unnamed_addr constant [28 x i8] c"    while <changed design>\0A\00", align 1
@.str.20 = private unnamed_addr constant [62 x i8] c"When called with -fast the following script is used instead:\0A\00", align 1
@.str.21 = private unnamed_addr constant [39 x i8] c"    while <changed design in opt_dff>\0A\00", align 1
@.str.22 = private unnamed_addr constant [76 x i8] c"Note: Options in square brackets (such as [-keepdc]) are passed through to\0A\00", align 1
@.str.23 = private unnamed_addr constant [41 x i8] c"the opt_* commands when given to 'opt'.\0A\00", align 1

; Function Attrs: mustprogress uwtable
define internal void @_ZN12_GLOBAL__N_17OptPass4helpEv(ptr noundef nonnull align 8 dereferenceable(104) %0) unnamed_addr #4 align 2 {
  %2 = alloca ptr, align 8
  store ptr %0, ptr %2, align 8, !tbaa !6
  call void (ptr, ...) @_ZN5Yosys3logEPKcz(ptr noundef @.str.4)
  call void (ptr, ...) @_ZN5Yosys3logEPKcz(ptr noundef @.str.5)
  call void (ptr, ...) @_ZN5Yosys3logEPKcz(ptr noundef @.str.4)
  call void (ptr, ...) @_ZN5Yosys3logEPKcz(ptr noundef @.str.6)
  call void (ptr, ...) @_ZN5Yosys3logEPKcz(ptr noundef @.str.7)
  call void (ptr, ...) @_ZN5Yosys3logEPKcz(ptr noundef @.str.8)
  call void (ptr, ...) @_ZN5Yosys3logEPKcz(ptr noundef @.str.4)
  call void (ptr, ...) @_ZN5Yosys3logEPKcz(ptr noundef @.str.9)
  call void (ptr, ...) @_ZN5Yosys3logEPKcz(ptr noundef @.str.10)
  call void (ptr, ...) @_ZN5Yosys3logEPKcz(ptr noundef @.str.4)
  call void (ptr, ...) @_ZN5Yosys3logEPKcz(ptr noundef @.str.11)
  call void (ptr, ...) @_ZN5Yosys3logEPKcz(ptr noundef @.str.12)
  call void (ptr, ...) @_ZN5Yosys3logEPKcz(ptr noundef @.str.13)
  call void (ptr, ...) @_ZN5Yosys3logEPKcz(ptr noundef @.str.14)
  call void (ptr, ...) @_ZN5Yosys3logEPKcz(ptr noundef @.str.15)
  call void (ptr, ...) @_ZN5Yosys3logEPKcz(ptr noundef @.str.16)
  call void (ptr, ...) @_ZN5Yosys3logEPKcz(ptr noundef @.str.17)
  call void (ptr, ...) @_ZN5Yosys3logEPKcz(ptr noundef @.str.18)
  call void (ptr, ...) @_ZN5Yosys3logEPKcz(ptr noundef @.str.19)
  call void (ptr, ...) @_ZN5Yosys3logEPKcz(ptr noundef @.str.4)
  call void (ptr, ...) @_ZN5Yosys3logEPKcz(ptr noundef @.str.20)
  call void (ptr, ...) @_ZN5Yosys3logEPKcz(ptr noundef @.str.4)
  call void (ptr, ...) @_ZN5Yosys3logEPKcz(ptr noundef @.str.11)
  call void (ptr, ...) @_ZN5Yosys3logEPKcz(ptr noundef @.str.18)
  call void (ptr, ...) @_ZN5Yosys3logEPKcz(ptr noundef @.str.14)
  call void (ptr, ...) @_ZN5Yosys3logEPKcz(ptr noundef @.str.16)
  call void (ptr, ...) @_ZN5Yosys3logEPKcz(ptr noundef @.str.17)
  call void (ptr, ...) @_ZN5Yosys3logEPKcz(ptr noundef @.str.21)
  call void (ptr, ...) @_ZN5Yosys3logEPKcz(ptr noundef @.str.4)
  call void (ptr, ...) @_ZN5Yosys3logEPKcz(ptr noundef @.str.22)
  call void (ptr, ...) @_ZN5Yosys3logEPKcz(ptr noundef @.str.23)
  call void (ptr, ...) @_ZN5Yosys3logEPKcz(ptr noundef @.str.4)
  call void (ptr, ...) @_ZN5Yosys3logEPKcz(ptr noundef @.str.4)
  ret void
}